; ModuleID = '55/597.c'
source_filename = "55/597.c"
target datalayout = "e-m:e-p270:32:32-p271:32:32-p272:64:64-i64:64-f80:128-n8:16:32:64-S128"
target triple = "x86_64-pc-linux-gnu"

@.str = private unnamed_addr constant [9 x i8] c"%ld%s%ld\00", align 1
@str = common dso_local global [50 x i8] zeroinitializer, align 16
@.str.1 = private unnamed_addr constant [3 x i8] c"0\0A\00", align 1
@ans = common dso_local global [50 x i8] zeroinitializer, align 16
@.str.2 = private unnamed_addr constant [3 x i8] c"%c\00", align 1
@.str.3 = private unnamed_addr constant [4 x i8] c"%c\0A\00", align 1

; Function Attrs: noinline nounwind uwtable
define dso_local i32 @main() #0 {
  %1 = alloca i32, align 4
  %2 = alloca i32, align 4
  %3 = alloca i32, align 4
  %4 = alloca i32, align 4
  %5 = alloca i32, align 4
  %6 = alloca i32, align 4
  %7 = alloca i32, align 4
  %8 = alloca i32, align 4
  %9 = alloca i64, align 8
  %10 = alloca i64, align 8
  %11 = alloca i64, align 8
  %12 = alloca i64, align 8
  store i32 0, i32* %1, align 4
  store i64 0, i64* %11, align 8
  store i64 0, i64* %12, align 8
  %13 = call i32 (i8*, ...) @__isoc99_scanf(i8* getelementptr inbounds ([9 x i8], [9 x i8]* @.str, i64 0, i64 0), i64* %10, i8* getelementptr inbounds ([50 x i8], [50 x i8]* @str, i64 0, i64 0), i64* %9)
  %14 = call i64 @strlen(i8* getelementptr inbounds ([50 x i8], [50 x i8]* @str, i64 0, i64 0)) #3
  %15 = trunc i64 %14 to i32
  store i32 %15, i32* %6, align 4
  store i32 0, i32* %2, align 4
  br label %16

16:                                               ; preds = %94, %0
  %17 = load i32, i32* %2, align 4
  %18 = load i32, i32* %6, align 4
  %19 = icmp slt i32 %17, %18
  br i1 %19, label %20, label %97

20:                                               ; preds = %16
  store i32 1, i32* %8, align 4
  %21 = load i32, i32* %2, align 4
  %22 = sext i32 %21 to i64
  %23 = getelementptr inbounds [50 x i8], [50 x i8]* @str, i64 0, i64 %22
  %24 = load i8, i8* %23, align 1
  %25 = sext i8 %24 to i32
  %26 = icmp sge i32 %25, 97
  br i1 %26, label %27, label %41

27:                                               ; preds = %20
  %28 = load i32, i32* %2, align 4
  %29 = sext i32 %28 to i64
  %30 = getelementptr inbounds [50 x i8], [50 x i8]* @str, i64 0, i64 %29
  %31 = load i8, i8* %30, align 1
  %32 = sext i8 %31 to i32
  %33 = icmp sle i32 %32, 122
  br i1 %33, label %34, label %41

34:                                               ; preds = %27
  %35 = load i32, i32* %2, align 4
  %36 = sext i32 %35 to i64
  %37 = getelementptr inbounds [50 x i8], [50 x i8]* @str, i64 0, i64 %36
  %38 = load i8, i8* %37, align 1
  %39 = sext i8 %38 to i32
  %40 = sub nsw i32 %39, 87
  store i32 %40, i32* %7, align 4
  br label %70

41:                                               ; preds = %27, %20
  %42 = load i32, i32* %2, align 4
  %43 = sext i32 %42 to i64
  %44 = getelementptr inbounds [50 x i8], [50 x i8]* @str, i64 0, i64 %43
  %45 = load i8, i8* %44, align 1
  %46 = sext i8 %45 to i32
  %47 = icmp sge i32 %46, 65
  br i1 %47, label %48, label %62

48:                                               ; preds = %41
  %49 = load i32, i32* %2, align 4
  %50 = sext i32 %49 to i64
  %51 = getelementptr inbounds [50 x i8], [50 x i8]* @str, i64 0, i64 %50
  %52 = load i8, i8* %51, align 1
  %53 = sext i8 %52 to i32
  %54 = icmp sle i32 %53, 90
  br i1 %54, label %55, label %62

55:                                               ; preds = %48
  %56 = load i32, i32* %2, align 4
  %57 = sext i32 %56 to i64
  %58 = getelementptr inbounds [50 x i8], [50 x i8]* @str, i64 0, i64 %57
  %59 = load i8, i8* %58, align 1
  %60 = sext i8 %59 to i32
  %61 = sub nsw i32 %60, 55
  store i32 %61, i32* %7, align 4
  br label %69

62:                                               ; preds = %48, %41
  %63 = load i32, i32* %2, align 4
  %64 = sext i32 %63 to i64
  %65 = getelementptr inbounds [50 x i8], [50 x i8]* @str, i64 0, i64 %64
  %66 = load i8, i8* %65, align 1
  %67 = sext i8 %66 to i32
  %68 = sub nsw i32 %67, 48
  store i32 %68, i32* %7, align 4
  br label %69

69:                                               ; preds = %62, %55
  br label %70

70:                                               ; preds = %69, %34
  store i32 0, i32* %3, align 4
  br label %71

71:                                               ; preds = %84, %70
  %72 = load i32, i32* %3, align 4
  %73 = load i32, i32* %6, align 4
  %74 = load i32, i32* %2, align 4
  %75 = sub nsw i32 %73, %74
  %76 = sub nsw i32 %75, 1
  %77 = icmp slt i32 %72, %76
  br i1 %77, label %78, label %87

78:                                               ; preds = %71
  %79 = load i32, i32* %8, align 4
  %80 = sext i32 %79 to i64
  %81 = load i64, i64* %10, align 8
  %82 = mul nsw i64 %80, %81
  %83 = trunc i64 %82 to i32
  store i32 %83, i32* %8, align 4
  br label %84

84:                                               ; preds = %78
  %85 = load i32, i32* %3, align 4
  %86 = add nsw i32 %85, 1
  store i32 %86, i32* %3, align 4
  br label %71

87:                                               ; preds = %71
  %88 = load i64, i64* %11, align 8
  %89 = load i32, i32* %8, align 4
  %90 = load i32, i32* %7, align 4
  %91 = mul nsw i32 %89, %90
  %92 = sext i32 %91 to i64
  %93 = add nsw i64 %88, %92
  store i64 %93, i64* %11, align 8
  br label %94

94:                                               ; preds = %87
  %95 = load i32, i32* %2, align 4
  %96 = add nsw i32 %95, 1
  store i32 %96, i32* %2, align 4
  br label %16

97:                                               ; preds = %16
  %98 = load i64, i64* %11, align 8
  %99 = icmp eq i64 %98, 0
  br i1 %99, label %100, label %102

100:                                              ; preds = %97
  %101 = call i32 (i8*, ...) @printf(i8* getelementptr inbounds ([3 x i8], [3 x i8]* @.str.1, i64 0, i64 0))
  br label %233

102:                                              ; preds = %97
  store i32 0, i32* %4, align 4
  br label %103

103:                                              ; preds = %121, %102
  %104 = load i64, i64* %11, align 8
  %105 = icmp ne i64 %104, 0
  br i1 %105, label %106, label %124

106:                                              ; preds = %103
  %107 = load i64, i64* %11, align 8
  store i64 %107, i64* %12, align 8
  %108 = load i64, i64* %11, align 8
  %109 = load i64, i64* %9, align 8
  %110 = sdiv i64 %108, %109
  store i64 %110, i64* %11, align 8
  %111 = load i64, i64* %12, align 8
  %112 = load i64, i64* %11, align 8
  %113 = load i64, i64* %9, align 8
  %114 = mul nsw i64 %112, %113
  %115 = sub nsw i64 %111, %114
  %116 = add nsw i64 %115, 48
  %117 = trunc i64 %116 to i8
  %118 = load i32, i32* %4, align 4
  %119 = sext i32 %118 to i64
  %120 = getelementptr inbounds [50 x i8], [50 x i8]* @ans, i64 0, i64 %119
  store i8 %117, i8* %120, align 1
  br label %121

121:                                              ; preds = %106
  %122 = load i32, i32* %4, align 4
  %123 = add nsw i32 %122, 1
  store i32 %123, i32* %4, align 4
  br label %103

124:                                              ; preds = %103
  store i32 0, i32* %5, align 4
  br label %125

125:                                              ; preds = %229, %124
  %126 = load i32, i32* %5, align 4
  %127 = load i32, i32* %4, align 4
  %128 = icmp slt i32 %126, %127
  br i1 %128, label %129, label %232

129:                                              ; preds = %125
  %130 = load i32, i32* %5, align 4
  %131 = load i32, i32* %4, align 4
  %132 = sub nsw i32 %131, 1
  %133 = icmp ne i32 %130, %132
  br i1 %133, label %134, label %181

134:                                              ; preds = %129
  %135 = load i32, i32* %4, align 4
  %136 = load i32, i32* %5, align 4
  %137 = sub nsw i32 %135, %136
  %138 = sub nsw i32 %137, 1
  %139 = sext i32 %138 to i64
  %140 = getelementptr inbounds [50 x i8], [50 x i8]* @ans, i64 0, i64 %139
  %141 = load i8, i8* %140, align 1
  %142 = sext i8 %141 to i32
  %143 = icmp sgt i32 %142, 57
  br i1 %143, label %144, label %170

144:                                              ; preds = %134
  %145 = load i32, i32* %4, align 4
  %146 = load i32, i32* %5, align 4
  %147 = sub nsw i32 %145, %146
  %148 = sub nsw i32 %147, 1
  %149 = sext i32 %148 to i64
  %150 = getelementptr inbounds [50 x i8], [50 x i8]* @ans, i64 0, i64 %149
  %151 = load i8, i8* %150, align 1
  %152 = sext i8 %151 to i32
  %153 = add nsw i32 %152, 7
  %154 = trunc i32 %153 to i8
  %155 = load i32, i32* %4, align 4
  %156 = load i32, i32* %5, align 4
  %157 = sub nsw i32 %155, %156
  %158 = sub nsw i32 %157, 1
  %159 = sext i32 %158 to i64
  %160 = getelementptr inbounds [50 x i8], [50 x i8]* @ans, i64 0, i64 %159
  store i8 %154, i8* %160, align 1
  %161 = load i32, i32* %4, align 4
  %162 = load i32, i32* %5, align 4
  %163 = sub nsw i32 %161, %162
  %164 = sub nsw i32 %163, 1
  %165 = sext i32 %164 to i64
  %166 = getelementptr inbounds [50 x i8], [50 x i8]* @ans, i64 0, i64 %165
  %167 = load i8, i8* %166, align 1
  %168 = sext i8 %167 to i32
  %169 = call i32 (i8*, ...) @printf(i8* getelementptr inbounds ([3 x i8], [3 x i8]* @.str.2, i64 0, i64 0), i32 %168)
  br label %180

170:                                              ; preds = %134
  %171 = load i32, i32* %4, align 4
  %172 = load i32, i32* %5, align 4
  %173 = sub nsw i32 %171, %172
  %174 = sub nsw i32 %173, 1
  %175 = sext i32 %174 to i64
  %176 = getelementptr inbounds [50 x i8], [50 x i8]* @ans, i64 0, i64 %175
  %177 = load i8, i8* %176, align 1
  %178 = sext i8 %177 to i32
  %179 = call i32 (i8*, ...) @printf(i8* getelementptr inbounds ([3 x i8], [3 x i8]* @.str.2, i64 0, i64 0), i32 %178)
  br label %180

180:                                              ; preds = %170, %144
  br label %228

181:                                              ; preds = %129
  %182 = load i32, i32* %4, align 4
  %183 = load i32, i32* %5, align 4
  %184 = sub nsw i32 %182, %183
  %185 = sub nsw i32 %184, 1
  %186 = sext i32 %185 to i64
  %187 = getelementptr inbounds [50 x i8], [50 x i8]* @ans, i64 0, i64 %186
  %188 = load i8, i8* %187, align 1
  %189 = sext i8 %188 to i32
  %190 = icmp sgt i32 %189, 57
  br i1 %190, label %191, label %217

191:                                              ; preds = %181
  %192 = load i32, i32* %4, align 4
  %193 = load i32, i32* %5, align 4
  %194 = sub nsw i32 %192, %193
  %195 = sub nsw i32 %194, 1
  %196 = sext i32 %195 to i64
  %197 = getelementptr inbounds [50 x i8], [50 x i8]* @ans, i64 0, i64 %196
  %198 = load i8, i8* %197, align 1
  %199 = sext i8 %198 to i32
  %200 = add nsw i32 %199, 7
  %201 = trunc i32 %200 to i8
  %202 = load i32, i32* %4, align 4
  %203 = load i32, i32* %5, align 4
  %204 = sub nsw i32 %202, %203
  %205 = sub nsw i32 %204, 1
  %206 = sext i32 %205 to i64
  %207 = getelementptr inbounds [50 x i8], [50 x i8]* @ans, i64 0, i64 %206
  store i8 %201, i8* %207, align 1
  %208 = load i32, i32* %4, align 4
  %209 = load i32, i32* %5, align 4
  %210 = sub nsw i32 %208, %209
  %211 = sub nsw i32 %210, 1
  %212 = sext i32 %211 to i64
  %213 = getelementptr inbounds [50 x i8], [50 x i8]* @ans, i64 0, i64 %212
  %214 = load i8, i8* %213, align 1
  %215 = sext i8 %214 to i32
  %216 = call i32 (i8*, ...) @printf(i8* getelementptr inbounds ([4 x i8], [4 x i8]* @.str.3, i64 0, i64 0), i32 %215)
  br label %227

217:                                              ; preds = %181
  %218 = load i32, i32* %4, align 4
  %219 = load i32, i32* %5, align 4
  %220 = sub nsw i32 %218, %219
  %221 = sub nsw i32 %220, 1
  %222 = sext i32 %221 to i64
  %223 = getelementptr inbounds [50 x i8], [50 x i8]* @ans, i64 0, i64 %222
  %224 = load i8, i8* %223, align 1
  %225 = sext i8 %224 to i32
  %226 = call i32 (i8*, ...) @printf(i8* getelementptr inbounds ([4 x i8], [4 x i8]* @.str.3, i64 0, i64 0), i32 %225)
  br label %227

227:                                              ; preds = %217, %191
  br label %228

228:                                              ; preds = %227, %180
  br label %229

229:                                              ; preds = %228
  %230 = load i32, i32* %5, align 4
  %231 = add nsw i32 %230, 1
  store i32 %231, i32* %5, align 4
  br label %125

232:                                              ; preds = %125
  br label %233

233:                                              ; preds = %232, %100
  ret i32 0
}

declare dso_local i32 @__isoc99_scanf(i8*, ...) #1

; Function Attrs: nounwind readonly
declare dso_local i64 @strlen(i8*) #2

declare dso_local i32 @printf(i8*, ...) #1


!llvm.module.flags = !{!0}
!llvm.ident = !{!1}

!0 = !{i32 1, !"wchar_size", i32 4}
!1 = !{!"clang version 10.0.0-4ubuntu1 "}
